target datalayout = "e-m:e-p270:32:32-p271:32:32-p272:64:64-i64:64-i128:128-f80:128-n8:16:32:64-S128"
target triple = "x86_64-unknown-linux-gnu"

%class.symbol = type { ptr }
%"class.smt::theory_char" = type { %"class.smt::theory.base", %class.seq_util, %class.vector.4, %class.vector.5, %class.svector, %class.svector.6, %class.bit_blaster, %"struct.smt::theory_char::stats", %class.symbol, ptr }
%"class.smt::theory.base" = type <{ ptr, i32, [4 x i8], ptr, ptr, %class.ptr_vector, %class.svector, i32, i8 }>
%class.ptr_vector = type { %class.vector }
%class.vector = type { ptr }
%class.seq_util = type { ptr, ptr, ptr, i32, [4 x i8], %"class.seq_util::str", %"class.seq_util::rex" }
%"class.seq_util::str" = type <{ ptr, ptr, i32, [4 x i8] }>
%"class.seq_util::rex" = type { ptr, ptr, i32, %class.vector.1, %class.ref_vector, %"struct.seq_util::rex::info", %"struct.seq_util::rex::info" }
%class.vector.1 = type { ptr }
%class.ref_vector = type { %class.ref_vector_core }
%class.ref_vector_core = type { %class.ref_manager_wrapper, %class.ptr_vector.2 }
%class.ref_manager_wrapper = type { ptr }
%class.ptr_vector.2 = type { %class.vector.3 }
%class.vector.3 = type { ptr }
%"struct.seq_util::rex::info" = type { i32, i8, i32, i32 }
%class.vector.4 = type { ptr }
%class.vector.5 = type { ptr }
%class.svector = type { %class.vector.0 }
%class.vector.0 = type { ptr }
%class.svector.6 = type { %class.vector.7 }
%class.vector.7 = type { ptr }
%class.bit_blaster = type { %class.bit_blaster_tpl, %class.bv_util, %class.bool_rewriter }
%class.bit_blaster_tpl = type { %class.bit_blaster_cfg, i64 }
%class.bit_blaster_cfg = type { ptr, ptr, ptr }
%class.bv_util = type { %class.bv_recognizers, ptr, ptr }
%class.bv_recognizers = type { i32 }
%class.bool_rewriter = type { ptr, i8, i8, i8, i8, i8, i8, i32, i8, i32, i32, i8, %class.ptr_vector.2, %class.ptr_vector.2, %class.svector, %class.svector }
%"struct.smt::theory_char::stats" = type { i32, i32, i32 }

@.str.11 = private unnamed_addr constant [18 x i8] c"seq char ackerman\00", align 1
@.str.12 = private unnamed_addr constant [16 x i8] c"seq char bounds\00", align 1
@.str.13 = private unnamed_addr constant [13 x i8] c"seq char2bit\00", align 1

; Function Attrs: mustprogress uwtable
define hidden void @_ZNK3smt11theory_char18collect_statisticsER10statistics(ptr noundef nonnull align 8 dereferenceable(384) %this, ptr noundef nonnull align 8 dereferenceable(16) %st) unnamed_addr #5 align 2 {
entry:
  %this.addr = alloca ptr, align 8
  %st.addr = alloca ptr, align 8
  store ptr %this, ptr %this.addr, align 8
  store ptr %st, ptr %st.addr, align 8
  %this1 = load ptr, ptr %this.addr, align 8
  %0 = load ptr, ptr %st.addr, align 8
  %m_stats = getelementptr inbounds %"class.smt::theory_char", ptr %this1, i32 0, i32 7
  %m_num_ackerman = getelementptr inbounds %"struct.smt::theory_char::stats", ptr %m_stats, i32 0, i32 0
  %1 = load i32, ptr %m_num_ackerman, align 8
  call void @_ZN10statistics6updateEPKcj(ptr noundef nonnull align 8 dereferenceable(16) %0, ptr noundef @.str.11, i32 noundef %1)
  %2 = load ptr, ptr %st.addr, align 8
  %m_stats2 = getelementptr inbounds %"class.smt::theory_char", ptr %this1, i32 0, i32 7
  %m_num_bounds = getelementptr inbounds %"struct.smt::theory_char::stats", ptr %m_stats2, i32 0, i32 1
  %3 = load i32, ptr %m_num_bounds, align 4
  call void @_ZN10statistics6updateEPKcj(ptr noundef nonnull align 8 dereferenceable(16) %2, ptr noundef @.str.12, i32 noundef %3)
  %4 = load ptr, ptr %st.addr, align 8
  %m_stats3 = getelementptr inbounds %"class.smt::theory_char", ptr %this1, i32 0, i32 7
  %m_num_blast = getelementptr inbounds %"struct.smt::theory_char::stats", ptr %m_stats3, i32 0, i32 2
  %5 = load i32, ptr %m_num_blast, align 8
  call void @_ZN10statistics6updateEPKcj(ptr noundef nonnull align 8 dereferenceable(16) %4, ptr noundef @.str.13, i32 noundef %5)
  ret void
}