; Function Attrs: mustprogress uwtable
define hidden void @_ZNK3smt11theory_char18collect_statisticsER10statistics(ptr nocapture noundef nonnull readonly align 8 dereferenceable(384) %this, ptr noundef nonnull align 8 dereferenceable(16) %st) unnamed_addr #3 align 2 {
entry:
  %m_stats = getelementptr inbounds i8, ptr %this, i64 352
  %0 = load i32, ptr %m_stats, align 8
  tail call void @_ZN10statistics6updateEPKcj(ptr noundef nonnull align 8 dereferenceable(16) %st, ptr noundef nonnull @.str.11, i32 noundef %0)
  %m_num_bounds = getelementptr inbounds i8, ptr %this, i64 356
  %1 = load i32, ptr %m_num_bounds, align 4
  tail call void @_ZN10statistics6updateEPKcj(ptr noundef nonnull align 8 dereferenceable(16) %st, ptr noundef nonnull @.str.12, i32 noundef %1)
  %m_num_blast = getelementptr inbounds i8, ptr %this, i64 360
  %2 = load i32, ptr %m_num_blast, align 8
  tail call void @_ZN10statistics6updateEPKcj(ptr noundef nonnull align 8 dereferenceable(16) %st, ptr noundef nonnull @.str.13, i32 noundef %2)
  ret void
}